; Function Attrs: nounwind uwtable
define hidden range(i32 0, 2) i32 @EVP_CipherInit(ptr noundef %0, ptr noundef %1, ptr noundef %2, ptr noundef %3, i32 noundef %4) local_unnamed_addr #0 {
  %.not = icmp eq ptr %1, null
  br i1 %.not, label %.split, label %.split7

.split7:                                          ; preds = %5
  tail call void @llvm.memset.p0.i64(ptr noundef nonnull align 8 dereferenceable(152) %0, i8 0, i64 152, i1 false)
  br label %.split

.split:                                           ; preds = %5, %.split7
  %.sink = phi ptr [ %1, %.split7 ], [ null, %5 ]
  %6 = tail call i32 @EVP_CipherInit_ex(ptr noundef %0, ptr noundef %.sink, ptr poison, ptr noundef %2, ptr noundef %3, i32 noundef %4)
  ret i32 %6
}